target datalayout = "e-m:e-p270:32:32-p271:32:32-p272:64:64-i64:64-i128:128-f80:128-n8:16:32:64-S128"
target triple = "x86_64-pc-linux-gnu"

@.str.4 = private unnamed_addr constant [2 x i8] c"\0A\00", align 1
@.str.5 = private unnamed_addr constant [36 x i8] c"    shregmap [options] [selection]\0A\00", align 1
@.str.6 = private unnamed_addr constant [82 x i8] c"This pass converts chains of $_DFF_[NP]_ gates to target specific shift register\0A\00", align 1
@.str.7 = private unnamed_addr constant [81 x i8] c"primitives. The generated shift register will be of type $__SHREG_DFF_[NP]_ and\0A\00", align 1
@.str.8 = private unnamed_addr constant [80 x i8] c"will use the same interface as the original $_DFF_*_ cells. The cell parameter\0A\00", align 1
@.str.9 = private unnamed_addr constant [77 x i8] c"'DEPTH' will contain the depth of the shift register. Use a target-specific\0A\00", align 1
@.str.10 = private unnamed_addr constant [71 x i8] c"'techmap' map file to convert those cells to the actual target cells.\0A\00", align 1
@.str.11 = private unnamed_addr constant [15 x i8] c"    -minlen N\0A\00", align 1
@.str.12 = private unnamed_addr constant [56 x i8] c"        minimum length of shift register (default = 2)\0A\00", align 1
@.str.13 = private unnamed_addr constant [65 x i8] c"        (this is the length after -keep_before and -keep_after)\0A\00", align 1
@.str.14 = private unnamed_addr constant [15 x i8] c"    -maxlen N\0A\00", align 1
@.str.15 = private unnamed_addr constant [63 x i8] c"        maximum length of shift register (default = no limit)\0A\00", align 1
@.str.16 = private unnamed_addr constant [75 x i8] c"        larger chains will be mapped to multiple shift register instances\0A\00", align 1
@.str.17 = private unnamed_addr constant [20 x i8] c"    -keep_before N\0A\00", align 1
@.str.18 = private unnamed_addr constant [72 x i8] c"        number of DFFs to keep before the shift register (default = 0)\0A\00", align 1
@.str.19 = private unnamed_addr constant [19 x i8] c"    -keep_after N\0A\00", align 1
@.str.20 = private unnamed_addr constant [71 x i8] c"        number of DFFs to keep after the shift register (default = 0)\0A\00", align 1
@.str.21 = private unnamed_addr constant [25 x i8] c"    -clkpol pos|neg|any\0A\00", align 1
@.str.22 = private unnamed_addr constant [79 x i8] c"        limit match to only positive or negative edge clocks. (default = any)\0A\00", align 1
@.str.23 = private unnamed_addr constant [41 x i8] c"    -enpol pos|neg|none|any_or_none|any\0A\00", align 1
@.str.24 = private unnamed_addr constant [81 x i8] c"        limit match to FFs with the specified enable polarity. (default = none)\0A\00", align 1
@.str.25 = private unnamed_addr constant [54 x i8] c"    -match <cell_type>[:<d_port_name>:<q_port_name>]\0A\00", align 1
@.str.26 = private unnamed_addr constant [72 x i8] c"        match the specified cells instead of $_DFF_N_ and $_DFF_P_. If\0A\00", align 1
@.str.27 = private unnamed_addr constant [76 x i8] c"        ':<d_port_name>:<q_port_name>' is omitted then 'D' and 'Q' is used\0A\00", align 1
@.str.28 = private unnamed_addr constant [72 x i8] c"        by default. E.g. the option '-clkpol pos' is just an alias for\0A\00", align 1
@.str.29 = private unnamed_addr constant [73 x i8] c"        '-match $_DFF_P_', which is an alias for '-match $_DFF_P_:D:Q'.\0A\00", align 1
@.str.30 = private unnamed_addr constant [13 x i8] c"    -params\0A\00", align 1
@.str.31 = private unnamed_addr constant [79 x i8] c"        instead of encoding the clock and enable polarity in the cell name by\0A\00", align 1
@.str.32 = private unnamed_addr constant [79 x i8] c"        deriving from the original cell name, simply name all generated cells\0A\00", align 1
@.str.33 = private unnamed_addr constant [79 x i8] c"        $__SHREG_ and use CLKPOL and ENPOL parameters. An ENPOL value of 2 is\0A\00", align 1
@.str.34 = private unnamed_addr constant [75 x i8] c"        used to denote cells without enable input. The ENPOL parameter is\0A\00", align 1
@.str.35 = private unnamed_addr constant [69 x i8] c"        omitted when '-enpol none' (or no -enpol option) is passed.\0A\00", align 1
@.str.36 = private unnamed_addr constant [12 x i8] c"    -zinit\0A\00", align 1
@.str.37 = private unnamed_addr constant [76 x i8] c"        assume the shift register is automatically zero-initialized, so it\0A\00", align 1
@.str.38 = private unnamed_addr constant [78 x i8] c"        becomes legal to merge zero initialized FFs into the shift register.\0A\00", align 1
@.str.39 = private unnamed_addr constant [11 x i8] c"    -init\0A\00", align 1
@.str.40 = private unnamed_addr constant [78 x i8] c"        map initialized registers to the shift reg, add an INIT parameter to\0A\00", align 1
@.str.41 = private unnamed_addr constant [80 x i8] c"        generated cells with the initialization value. (first bit to shift out\0A\00", align 1
@.str.42 = private unnamed_addr constant [26 x i8] c"        in LSB position)\0A\00", align 1
@.str.43 = private unnamed_addr constant [21 x i8] c"    -tech greenpak4\0A\00", align 1
@.str.44 = private unnamed_addr constant [43 x i8] c"        map to greenpak4 shift registers.\0A\00", align 1

; Function Attrs: mustprogress uwtable
define internal void @_ZN12_GLOBAL__N_112ShregmapPass4helpEv(ptr noundef nonnull align 8 dereferenceable(104) %0) unnamed_addr #4 align 2 {
  %2 = alloca ptr, align 8
  store ptr %0, ptr %2, align 8, !tbaa !6
  call void (ptr, ...) @_ZN5Yosys3logEPKcz(ptr noundef @.str.4)
  call void (ptr, ...) @_ZN5Yosys3logEPKcz(ptr noundef @.str.5)
  call void (ptr, ...) @_ZN5Yosys3logEPKcz(ptr noundef @.str.4)
  call void (ptr, ...) @_ZN5Yosys3logEPKcz(ptr noundef @.str.6)
  call void (ptr, ...) @_ZN5Yosys3logEPKcz(ptr noundef @.str.7)
  call void (ptr, ...) @_ZN5Yosys3logEPKcz(ptr noundef @.str.8)
  call void (ptr, ...) @_ZN5Yosys3logEPKcz(ptr noundef @.str.9)
  call void (ptr, ...) @_ZN5Yosys3logEPKcz(ptr noundef @.str.10)
  call void (ptr, ...) @_ZN5Yosys3logEPKcz(ptr noundef @.str.4)
  call void (ptr, ...) @_ZN5Yosys3logEPKcz(ptr noundef @.str.11)
  call void (ptr, ...) @_ZN5Yosys3logEPKcz(ptr noundef @.str.12)
  call void (ptr, ...) @_ZN5Yosys3logEPKcz(ptr noundef @.str.13)
  call void (ptr, ...) @_ZN5Yosys3logEPKcz(ptr noundef @.str.4)
  call void (ptr, ...) @_ZN5Yosys3logEPKcz(ptr noundef @.str.14)
  call void (ptr, ...) @_ZN5Yosys3logEPKcz(ptr noundef @.str.15)
  call void (ptr, ...) @_ZN5Yosys3logEPKcz(ptr noundef @.str.16)
  call void (ptr, ...) @_ZN5Yosys3logEPKcz(ptr noundef @.str.4)
  call void (ptr, ...) @_ZN5Yosys3logEPKcz(ptr noundef @.str.17)
  call void (ptr, ...) @_ZN5Yosys3logEPKcz(ptr noundef @.str.18)
  call void (ptr, ...) @_ZN5Yosys3logEPKcz(ptr noundef @.str.4)
  call void (ptr, ...) @_ZN5Yosys3logEPKcz(ptr noundef @.str.19)
  call void (ptr, ...) @_ZN5Yosys3logEPKcz(ptr noundef @.str.20)
  call void (ptr, ...) @_ZN5Yosys3logEPKcz(ptr noundef @.str.4)
  call void (ptr, ...) @_ZN5Yosys3logEPKcz(ptr noundef @.str.21)
  call void (ptr, ...) @_ZN5Yosys3logEPKcz(ptr noundef @.str.22)
  call void (ptr, ...) @_ZN5Yosys3logEPKcz(ptr noundef @.str.4)
  call void (ptr, ...) @_ZN5Yosys3logEPKcz(ptr noundef @.str.23)
  call void (ptr, ...) @_ZN5Yosys3logEPKcz(ptr noundef @.str.24)
  call void (ptr, ...) @_ZN5Yosys3logEPKcz(ptr noundef @.str.4)
  call void (ptr, ...) @_ZN5Yosys3logEPKcz(ptr noundef @.str.25)
  call void (ptr, ...) @_ZN5Yosys3logEPKcz(ptr noundef @.str.26)
  call void (ptr, ...) @_ZN5Yosys3logEPKcz(ptr noundef @.str.27)
  call void (ptr, ...) @_ZN5Yosys3logEPKcz(ptr noundef @.str.28)
  call void (ptr, ...) @_ZN5Yosys3logEPKcz(ptr noundef @.str.29)
  call void (ptr, ...) @_ZN5Yosys3logEPKcz(ptr noundef @.str.4)
  call void (ptr, ...) @_ZN5Yosys3logEPKcz(ptr noundef @.str.30)
  call void (ptr, ...) @_ZN5Yosys3logEPKcz(ptr noundef @.str.31)
  call void (ptr, ...) @_ZN5Yosys3logEPKcz(ptr noundef @.str.32)
  call void (ptr, ...) @_ZN5Yosys3logEPKcz(ptr noundef @.str.33)
  call void (ptr, ...) @_ZN5Yosys3logEPKcz(ptr noundef @.str.34)
  call void (ptr, ...) @_ZN5Yosys3logEPKcz(ptr noundef @.str.35)
  call void (ptr, ...) @_ZN5Yosys3logEPKcz(ptr noundef @.str.4)
  call void (ptr, ...) @_ZN5Yosys3logEPKcz(ptr noundef @.str.36)
  call void (ptr, ...) @_ZN5Yosys3logEPKcz(ptr noundef @.str.37)
  call void (ptr, ...) @_ZN5Yosys3logEPKcz(ptr noundef @.str.38)
  call void (ptr, ...) @_ZN5Yosys3logEPKcz(ptr noundef @.str.4)
  call void (ptr, ...) @_ZN5Yosys3logEPKcz(ptr noundef @.str.39)
  call void (ptr, ...) @_ZN5Yosys3logEPKcz(ptr noundef @.str.40)
  call void (ptr, ...) @_ZN5Yosys3logEPKcz(ptr noundef @.str.41)
  call void (ptr, ...) @_ZN5Yosys3logEPKcz(ptr noundef @.str.42)
  call void (ptr, ...) @_ZN5Yosys3logEPKcz(ptr noundef @.str.4)
  call void (ptr, ...) @_ZN5Yosys3logEPKcz(ptr noundef @.str.43)
  call void (ptr, ...) @_ZN5Yosys3logEPKcz(ptr noundef @.str.44)
  call void (ptr, ...) @_ZN5Yosys3logEPKcz(ptr noundef @.str.4)
  ret void
}